target datalayout = "e-m:e-p270:32:32-p271:32:32-p272:64:64-i64:64-i128:128-f80:128-n8:16:32:64-S128"
target triple = "x86_64-pc-linux-gnu"

%struct.node_record = type { ptr, ptr, i16, i64, i64, ptr, ptr, ptr, i16, ptr, i16, i16, i32, i32, i64, ptr, i16, i16, ptr, ptr, ptr, ptr, ptr, i64, i64, ptr, ptr, ptr, ptr, i32, ptr, ptr, i64, i64, i32, ptr, i64, ptr, i32, i16, ptr, ptr, i32, ptr, i32, i8, ptr, i32, i16, i16, ptr, i16, i64, i16, i64, ptr, i64, i32, i16, i64, i16, ptr, i16, i64, ptr, i64, i16, i32, i16, ptr, ptr, ptr, i16, i32, i16, i16, i32, ptr, i16, i32 }

@avail_node_bitmap = dso_local global ptr null, align 8
@cg_node_bitmap = dso_local global ptr null, align 8
@idle_node_bitmap = dso_local global ptr null, align 8
@share_node_bitmap = dso_local global ptr null, align 8
@up_node_bitmap = dso_local global ptr null, align 8
@acct_db_conn = external global ptr, align 8
@last_node_update = external global i64, align 8

; Function Attrs: nounwind uwtable
define dso_local void @node_mgr_reset_node_stats(ptr noundef %0) #0 {
  %2 = alloca ptr, align 8
  store ptr %0, ptr %2, align 8
  %3 = load ptr, ptr %2, align 8
  %4 = getelementptr inbounds nuw %struct.node_record, ptr %3, i32 0, i32 13
  store i32 0, ptr %4, align 8
  %5 = load ptr, ptr %2, align 8
  %6 = getelementptr inbounds nuw %struct.node_record, ptr %5, i32 0, i32 18
  %7 = load ptr, ptr %6, align 8
  call void @llvm.memset.p0.i64(ptr align 8 %7, i8 0, i64 56, i1 false)
  ret void
}

; Function Attrs: nounwind uwtable
define internal void @_make_node_unavail(ptr noundef %0) #0 {
  %2 = alloca ptr, align 8
  store ptr %0, ptr %2, align 8
  %3 = load ptr, ptr %2, align 8
  %4 = getelementptr inbounds nuw %struct.node_record, ptr %3, i32 0, i32 44
  %5 = load i32, ptr %4, align 8
  %6 = zext i32 %5 to i64
  %7 = and i64 %6, -1025
  %8 = trunc i64 %7 to i32
  store i32 %8, ptr %4, align 8
  %9 = load ptr, ptr @avail_node_bitmap, align 8
  %10 = load ptr, ptr %2, align 8
  %11 = getelementptr inbounds nuw %struct.node_record, ptr %10, i32 0, i32 29
  %12 = load i32, ptr %11, align 8
  %13 = zext i32 %12 to i64
  call void @bit_clear(ptr noundef %9, i64 noundef %13)
  %14 = load ptr, ptr @cg_node_bitmap, align 8
  %15 = load ptr, ptr %2, align 8
  %16 = getelementptr inbounds nuw %struct.node_record, ptr %15, i32 0, i32 29
  %17 = load i32, ptr %16, align 8
  %18 = zext i32 %17 to i64
  call void @bit_clear(ptr noundef %14, i64 noundef %18)
  %19 = load ptr, ptr @idle_node_bitmap, align 8
  %20 = load ptr, ptr %2, align 8
  %21 = getelementptr inbounds nuw %struct.node_record, ptr %20, i32 0, i32 29
  %22 = load i32, ptr %21, align 8
  %23 = zext i32 %22 to i64
  call void @bit_set(ptr noundef %19, i64 noundef %23)
  %24 = load ptr, ptr @share_node_bitmap, align 8
  %25 = load ptr, ptr %2, align 8
  %26 = getelementptr inbounds nuw %struct.node_record, ptr %25, i32 0, i32 29
  %27 = load i32, ptr %26, align 8
  %28 = zext i32 %27 to i64
  call void @bit_set(ptr noundef %24, i64 noundef %28)
  %29 = load ptr, ptr @up_node_bitmap, align 8
  %30 = load ptr, ptr %2, align 8
  %31 = getelementptr inbounds nuw %struct.node_record, ptr %30, i32 0, i32 29
  %32 = load i32, ptr %31, align 8
  %33 = zext i32 %32 to i64
  call void @bit_clear(ptr noundef %29, i64 noundef %33)
  ret void
}

; Function Attrs: nounwind uwtable
define internal void @_make_node_down(ptr noundef %0, i64 noundef %1) #0 {
  %3 = alloca ptr, align 8
  %4 = alloca i64, align 8
  %5 = alloca i32, align 4
  store ptr %0, ptr %3, align 8
  store i64 %1, ptr %4, align 8
  call void @llvm.lifetime.start.p0(i64 4, ptr %5) #10
  %6 = load ptr, ptr %3, align 8
  call void @_make_node_unavail(ptr noundef %6)
  %7 = load ptr, ptr %3, align 8
  call void @node_mgr_reset_node_stats(ptr noundef %7)
  %8 = load ptr, ptr %3, align 8
  %9 = getelementptr inbounds nuw %struct.node_record, ptr %8, i32 0, i32 44
  %10 = load i32, ptr %9, align 8
  %11 = and i32 %10, -16
  store i32 %11, ptr %5, align 4
  %12 = load i32, ptr %5, align 4
  %13 = or i32 1, %12
  %14 = load ptr, ptr %3, align 8
  %15 = getelementptr inbounds nuw %struct.node_record, ptr %14, i32 0, i32 44
  store i32 %13, ptr %15, align 8
  %16 = load ptr, ptr %3, align 8
  %17 = getelementptr inbounds nuw %struct.node_record, ptr %16, i32 0, i32 47
  store i32 -2, ptr %17, align 8
  %18 = load ptr, ptr %3, align 8
  %19 = getelementptr inbounds nuw %struct.node_record, ptr %18, i32 0, i32 35
  call void @slurm_xfree(ptr noundef %19)
  %20 = load ptr, ptr %3, align 8
  call void @trigger_node_down(ptr noundef %20)
  %21 = call i64 @time(ptr noundef null) #10
  store i64 %21, ptr @last_node_update, align 8
  %22 = load ptr, ptr @acct_db_conn, align 8
  %23 = load ptr, ptr %3, align 8
  %24 = load i64, ptr %4, align 8
  %25 = load ptr, ptr %3, align 8
  %26 = getelementptr inbounds nuw %struct.node_record, ptr %25, i32 0, i32 57
  %27 = load i32, ptr %26, align 8
  %28 = call i32 @clusteracct_storage_g_node_down(ptr noundef %22, ptr noundef %23, i64 noundef %24, ptr noundef null, i32 noundef %27)
  call void @validate_all_reservations(i1 noundef zeroext false, i1 noundef zeroext false)
  call void @llvm.lifetime.end.p0(i64 4, ptr %5) #10
  ret void
}