; Function Attrs: nounwind uwtable
define internal fastcc void @_make_node_down(ptr noundef initializes((88, 92), (336, 340)) %0, i64 noundef %1) unnamed_addr #0 {
  %3 = getelementptr inbounds nuw i8, ptr %0, i64 320
  %4 = load i32, ptr %3, align 8
  %5 = and i32 %4, -1025
  store i32 %5, ptr %3, align 8
  %6 = load ptr, ptr @avail_node_bitmap, align 8
  %7 = getelementptr inbounds nuw i8, ptr %0, i64 208
  %8 = load i32, ptr %7, align 8
  %9 = zext i32 %8 to i64
  tail call void @bit_clear(ptr noundef %6, i64 noundef %9) #15
  %10 = load ptr, ptr @cg_node_bitmap, align 8
  %11 = load i32, ptr %7, align 8
  %12 = zext i32 %11 to i64
  tail call void @bit_clear(ptr noundef %10, i64 noundef %12) #15
  %13 = load ptr, ptr @idle_node_bitmap, align 8
  %14 = load i32, ptr %7, align 8
  %15 = zext i32 %14 to i64
  tail call void @bit_set(ptr noundef %13, i64 noundef %15) #15
  %16 = load ptr, ptr @share_node_bitmap, align 8
  %17 = load i32, ptr %7, align 8
  %18 = zext i32 %17 to i64
  tail call void @bit_set(ptr noundef %16, i64 noundef %18) #15
  %19 = load ptr, ptr @up_node_bitmap, align 8
  %20 = load i32, ptr %7, align 8
  %21 = zext i32 %20 to i64
  tail call void @bit_clear(ptr noundef %19, i64 noundef %21) #15
  %22 = getelementptr inbounds nuw i8, ptr %0, i64 88
  store i32 0, ptr %22, align 8
  %23 = getelementptr inbounds nuw i8, ptr %0, i64 120
  %24 = load ptr, ptr %23, align 8
  tail call void @llvm.memset.p0.i64(ptr noundef nonnull align 8 dereferenceable(56) %24, i8 0, i64 56, i1 false)
  %25 = load i32, ptr %3, align 8
  %26 = and i32 %25, -16
  %27 = or disjoint i32 %26, 1
  store i32 %27, ptr %3, align 8
  %28 = getelementptr inbounds nuw i8, ptr %0, i64 336
  store i32 -2, ptr %28, align 8
  %29 = getelementptr inbounds nuw i8, ptr %0, i64 256
  tail call void @slurm_xfree(ptr noundef nonnull %29) #15
  tail call void @trigger_node_down(ptr noundef %0) #15
  %30 = tail call i64 @time(ptr noundef null) #15
  store i64 %30, ptr @last_node_update, align 8
  %31 = load ptr, ptr @acct_db_conn, align 8
  %32 = getelementptr inbounds nuw i8, ptr %0, i64 400
  %33 = load i32, ptr %32, align 8
  %34 = tail call i32 @clusteracct_storage_g_node_down(ptr noundef %31, ptr noundef %0, i64 noundef %1, ptr noundef null, i32 noundef %33) #15
  tail call void @validate_all_reservations(i1 noundef zeroext false, i1 noundef zeroext false) #15
  ret void
}